; Function Attrs: mustprogress nofree norecurse nosync nounwind willreturn memory(argmem: readwrite) uwtable
define void @_ZN32pxrInternal_v0_24__pxrReserved__10GfMatrix4d18_SetRotateFromQuatEdRKNS_7GfVec3dE(ptr nocapture noundef nonnull writeonly align 8 dereferenceable(128) %0, double noundef %1, ptr nocapture noundef nonnull readonly align 8 dereferenceable(24) %2) local_unnamed_addr #2 align 2 {
  %4 = getelementptr inbounds i8, ptr %2, i64 8
  %5 = load double, ptr %4, align 8
  %6 = getelementptr inbounds i8, ptr %2, i64 16
  %7 = load double, ptr %6, align 8
  %8 = fmul double %7, %7
  %9 = tail call double @llvm.fmuladd.f64(double %5, double %5, double %8)
  %10 = tail call double @llvm.fmuladd.f64(double %9, double -2.000000e+00, double 1.000000e+00)
  store double %10, ptr %0, align 8
  %11 = load double, ptr %2, align 8
  %12 = load double, ptr %4, align 8
  %13 = load double, ptr %6, align 8
  %14 = fmul double %1, %13
  %15 = tail call double @llvm.fmuladd.f64(double %11, double %12, double %14)
  %16 = fmul double %15, 2.000000e+00
  %17 = getelementptr inbounds i8, ptr %0, i64 8
  store double %16, ptr %17, align 8
  %18 = load double, ptr %6, align 8
  %19 = load double, ptr %2, align 8
  %20 = load double, ptr %4, align 8
  %21 = fneg double %1
  %22 = fmul double %20, %21
  %23 = tail call double @llvm.fmuladd.f64(double %18, double %19, double %22)
  %24 = fmul double %23, 2.000000e+00
  %25 = getelementptr inbounds i8, ptr %0, i64 16
  store double %24, ptr %25, align 8
  %26 = load double, ptr %2, align 8
  %27 = load double, ptr %4, align 8
  %28 = load double, ptr %6, align 8
  %29 = fmul double %28, %21
  %30 = tail call double @llvm.fmuladd.f64(double %26, double %27, double %29)
  %31 = fmul double %30, 2.000000e+00
  %32 = getelementptr inbounds i8, ptr %0, i64 32
  store double %31, ptr %32, align 8
  %33 = load double, ptr %6, align 8
  %34 = load double, ptr %2, align 8
  %35 = fmul double %34, %34
  %36 = tail call double @llvm.fmuladd.f64(double %33, double %33, double %35)
  %37 = tail call double @llvm.fmuladd.f64(double %36, double -2.000000e+00, double 1.000000e+00)
  %38 = getelementptr inbounds i8, ptr %0, i64 40
  store double %37, ptr %38, align 8
  %39 = load double, ptr %4, align 8
  %40 = load double, ptr %6, align 8
  %41 = load double, ptr %2, align 8
  %42 = fmul double %1, %41
  %43 = tail call double @llvm.fmuladd.f64(double %39, double %40, double %42)
  %44 = fmul double %43, 2.000000e+00
  %45 = getelementptr inbounds i8, ptr %0, i64 48
  store double %44, ptr %45, align 8
  %46 = load double, ptr %6, align 8
  %47 = load double, ptr %2, align 8
  %48 = load double, ptr %4, align 8
  %49 = fmul double %1, %48
  %50 = tail call double @llvm.fmuladd.f64(double %46, double %47, double %49)
  %51 = fmul double %50, 2.000000e+00
  %52 = getelementptr inbounds i8, ptr %0, i64 64
  store double %51, ptr %52, align 8
  %53 = load double, ptr %4, align 8
  %54 = load double, ptr %6, align 8
  %55 = load double, ptr %2, align 8
  %56 = fmul double %55, %21
  %57 = tail call double @llvm.fmuladd.f64(double %53, double %54, double %56)
  %58 = fmul double %57, 2.000000e+00
  %59 = getelementptr inbounds i8, ptr %0, i64 72
  store double %58, ptr %59, align 8
  %60 = load double, ptr %4, align 8
  %61 = load double, ptr %2, align 8
  %62 = fmul double %61, %61
  %63 = tail call double @llvm.fmuladd.f64(double %60, double %60, double %62)
  %64 = tail call double @llvm.fmuladd.f64(double %63, double -2.000000e+00, double 1.000000e+00)
  %65 = getelementptr inbounds i8, ptr %0, i64 80
  store double %64, ptr %65, align 8
  ret void
}